target datalayout = "e-m:e-p270:32:32-p271:32:32-p272:64:64-i64:64-i128:128-f80:128-n8:16:32:64-S128"
target triple = "x86_64-pc-linux-gnu"

%"class.std::__cxx11::basic_string" = type { %"struct.std::__cxx11::basic_string<char>::_Alloc_hider", i64, %union.anon }
%"struct.std::__cxx11::basic_string<char>::_Alloc_hider" = type { ptr }
%union.anon = type { i64, [8 x i8] }
%class.cmFindCommon = type { %"class.std::vector", %"class.std::vector", %"class.std::__cxx11::basic_string", i32, i8, i8, i8, i8, i8, i8, i8, i8, i32, %"class.std::vector", %"class.std::map", %"class.std::vector.6", %"class.std::map.11", %"class.std::map.19", %"class.std::vector", %"class.std::set", i8, i8, i8, i8, i8, i8, ptr, ptr }
%"class.std::map" = type { %"class.std::_Rb_tree" }
%"class.std::_Rb_tree" = type { %"struct.std::_Rb_tree<cmFindCommon::PathGroup, std::pair<const cmFindCommon::PathGroup, std::vector<cmFindCommon::PathLabel>>, std::_Select1st<std::pair<const cmFindCommon::PathGroup, std::vector<cmFindCommon::PathLabel>>>, std::less<cmFindCommon::PathGroup>>::_Rb_tree_impl" }
%"struct.std::_Rb_tree<cmFindCommon::PathGroup, std::pair<const cmFindCommon::PathGroup, std::vector<cmFindCommon::PathLabel>>, std::_Select1st<std::pair<const cmFindCommon::PathGroup, std::vector<cmFindCommon::PathLabel>>>, std::less<cmFindCommon::PathGroup>>::_Rb_tree_impl" = type { %"struct.std::_Rb_tree_key_compare", %"struct.std::_Rb_tree_header" }
%"struct.std::_Rb_tree_key_compare" = type { %"struct.std::less" }
%"struct.std::less" = type { i8 }
%"struct.std::_Rb_tree_header" = type { %"struct.std::_Rb_tree_node_base", i64 }
%"struct.std::_Rb_tree_node_base" = type { i32, ptr, ptr, ptr }
%"class.std::vector.6" = type { %"struct.std::_Vector_base.7" }
%"struct.std::_Vector_base.7" = type { %"struct.std::_Vector_base<cmFindCommon::PathGroup, std::allocator<cmFindCommon::PathGroup>>::_Vector_impl" }
%"struct.std::_Vector_base<cmFindCommon::PathGroup, std::allocator<cmFindCommon::PathGroup>>::_Vector_impl" = type { %"struct.std::_Vector_base<cmFindCommon::PathGroup, std::allocator<cmFindCommon::PathGroup>>::_Vector_impl_data" }
%"struct.std::_Vector_base<cmFindCommon::PathGroup, std::allocator<cmFindCommon::PathGroup>>::_Vector_impl_data" = type { ptr, ptr, ptr }
%"class.std::map.11" = type { %"class.std::_Rb_tree.12" }
%"class.std::_Rb_tree.12" = type { %"struct.std::_Rb_tree<std::__cxx11::basic_string<char>, std::pair<const std::__cxx11::basic_string<char>, cmFindCommon::PathLabel>, std::_Select1st<std::pair<const std::__cxx11::basic_string<char>, cmFindCommon::PathLabel>>, std::less<std::__cxx11::basic_string<char>>>::_Rb_tree_impl" }
%"struct.std::_Rb_tree<std::__cxx11::basic_string<char>, std::pair<const std::__cxx11::basic_string<char>, cmFindCommon::PathLabel>, std::_Select1st<std::pair<const std::__cxx11::basic_string<char>, cmFindCommon::PathLabel>>, std::less<std::__cxx11::basic_string<char>>>::_Rb_tree_impl" = type { %"struct.std::_Rb_tree_key_compare.16", %"struct.std::_Rb_tree_header" }
%"struct.std::_Rb_tree_key_compare.16" = type { %"struct.std::less.17" }
%"struct.std::less.17" = type { i8 }
%"class.std::map.19" = type { %"class.std::_Rb_tree.20" }
%"class.std::_Rb_tree.20" = type { %"struct.std::_Rb_tree<cmFindCommon::PathLabel, std::pair<const cmFindCommon::PathLabel, cmSearchPath>, std::_Select1st<std::pair<const cmFindCommon::PathLabel, cmSearchPath>>, std::less<cmFindCommon::PathLabel>>::_Rb_tree_impl" }
%"struct.std::_Rb_tree<cmFindCommon::PathLabel, std::pair<const cmFindCommon::PathLabel, cmSearchPath>, std::_Select1st<std::pair<const cmFindCommon::PathLabel, cmSearchPath>>, std::less<cmFindCommon::PathLabel>>::_Rb_tree_impl" = type { %"struct.std::_Rb_tree_key_compare.24", %"struct.std::_Rb_tree_header" }
%"struct.std::_Rb_tree_key_compare.24" = type { %"struct.std::less.25" }
%"struct.std::less.25" = type { i8 }
%"class.std::set" = type { %"class.std::_Rb_tree.27" }
%"class.std::_Rb_tree.27" = type { %"struct.std::_Rb_tree<cmSearchPath::PathWithPrefix, cmSearchPath::PathWithPrefix, std::_Identity<cmSearchPath::PathWithPrefix>, std::less<cmSearchPath::PathWithPrefix>>::_Rb_tree_impl" }
%"struct.std::_Rb_tree<cmSearchPath::PathWithPrefix, cmSearchPath::PathWithPrefix, std::_Identity<cmSearchPath::PathWithPrefix>, std::less<cmSearchPath::PathWithPrefix>>::_Rb_tree_impl" = type { %"struct.std::_Rb_tree_key_compare.31", %"struct.std::_Rb_tree_header" }
%"struct.std::_Rb_tree_key_compare.31" = type { %"struct.std::less.32" }
%"struct.std::less.32" = type { i8 }
%"class.std::vector" = type { %"struct.std::_Vector_base" }
%"struct.std::_Vector_base" = type { %"struct.std::_Vector_base<std::__cxx11::basic_string<char>, std::allocator<std::__cxx11::basic_string<char>>>::_Vector_impl" }
%"struct.std::_Vector_base<std::__cxx11::basic_string<char>, std::allocator<std::__cxx11::basic_string<char>>>::_Vector_impl" = type { %"struct.std::_Vector_base<std::__cxx11::basic_string<char>, std::allocator<std::__cxx11::basic_string<char>>>::_Vector_impl_data" }
%"struct.std::_Vector_base<std::__cxx11::basic_string<char>, std::allocator<std::__cxx11::basic_string<char>>>::_Vector_impl_data" = type { ptr, ptr, ptr }
%class.cmFindBaseDebugState = type { ptr, %"class.std::__cxx11::basic_string", %"class.std::vector.461", %"struct.cmFindBaseDebugState::DebugLibState" }
%"class.std::vector.461" = type { %"struct.std::_Vector_base.462" }
%"struct.std::_Vector_base.462" = type { %"struct.std::_Vector_base<cmFindBaseDebugState::DebugLibState, std::allocator<cmFindBaseDebugState::DebugLibState>>::_Vector_impl" }
%"struct.std::_Vector_base<cmFindBaseDebugState::DebugLibState, std::allocator<cmFindBaseDebugState::DebugLibState>>::_Vector_impl" = type { %"struct.std::_Vector_base<cmFindBaseDebugState::DebugLibState, std::allocator<cmFindBaseDebugState::DebugLibState>>::_Vector_impl_data" }
%"struct.std::_Vector_base<cmFindBaseDebugState::DebugLibState, std::allocator<cmFindBaseDebugState::DebugLibState>>::_Vector_impl_data" = type { ptr, ptr, ptr }
%"struct.cmFindBaseDebugState::DebugLibState" = type { %"class.std::__cxx11::basic_string", %"class.std::__cxx11::basic_string" }
%"class.__gnu_cxx::__normal_iterator.466" = type { ptr }

; Function Attrs: mustprogress uwtable
define linkonce_odr dso_local void @_ZN20cmFindBaseDebugState13DebugLibStateC2EONSt7__cxx1112basic_stringIcSt11char_traitsIcESaIcEEES6_(ptr noundef nonnull align 8 dereferenceable(64) %0, ptr noundef nonnull align 8 dereferenceable(32) %1, ptr noundef %2) unnamed_addr #4 comdat align 2 {
  %4 = alloca ptr, align 8
  %5 = alloca ptr, align 8
  %6 = alloca ptr, align 8
  store ptr %0, ptr %4, align 8
  store ptr %1, ptr %5, align 8
  store ptr %2, ptr %6, align 8
  %7 = load ptr, ptr %4, align 8
  %8 = getelementptr inbounds %"struct.cmFindBaseDebugState::DebugLibState", ptr %7, i32 0, i32 0
  %9 = load ptr, ptr %5, align 8
  call void @_ZNSt7__cxx1112basic_stringIcSt11char_traitsIcESaIcEEC1ERKS4_(ptr noundef nonnull align 8 dereferenceable(32) %8, ptr noundef nonnull align 8 dereferenceable(32) %9)
  %10 = getelementptr inbounds %"struct.cmFindBaseDebugState::DebugLibState", ptr %7, i32 0, i32 1
  call void @_ZNSt7__cxx1112basic_stringIcSt11char_traitsIcESaIcEEC1EOS4_(ptr noundef nonnull align 8 dereferenceable(32) %10, ptr noundef nonnull align 8 dereferenceable(32) %2) #3
  ret void
}

; Function Attrs: mustprogress nounwind uwtable
define linkonce_odr dso_local noundef nonnull align 8 dereferenceable(64) ptr @_ZNK9__gnu_cxx17__normal_iteratorIPN20cmFindBaseDebugState13DebugLibStateESt6vectorIS2_SaIS2_EEEdeEv(ptr noundef nonnull align 8 dereferenceable(8) %0) #5 comdat align 2 {
  %2 = alloca ptr, align 8
  store ptr %0, ptr %2, align 8
  %3 = load ptr, ptr %2, align 8
  %4 = getelementptr inbounds %"class.__gnu_cxx::__normal_iterator.466", ptr %3, i32 0, i32 0
  %5 = load ptr, ptr %4, align 8
  ret ptr %5
}

; Function Attrs: mustprogress nounwind uwtable
define linkonce_odr dso_local ptr @_ZNK9__gnu_cxx17__normal_iteratorIPN20cmFindBaseDebugState13DebugLibStateESt6vectorIS2_SaIS2_EEEmiEl(ptr noundef nonnull align 8 dereferenceable(8) %0, i64 noundef %1) #5 comdat align 2 {
  %3 = alloca %"class.__gnu_cxx::__normal_iterator.466", align 8
  %4 = alloca ptr, align 8
  %5 = alloca i64, align 8
  %6 = alloca ptr, align 8
  store ptr %0, ptr %4, align 8
  store i64 %1, ptr %5, align 8
  %7 = load ptr, ptr %4, align 8
  %8 = getelementptr inbounds %"class.__gnu_cxx::__normal_iterator.466", ptr %7, i32 0, i32 0
  %9 = load ptr, ptr %8, align 8
  %10 = load i64, ptr %5, align 8
  %11 = sub i64 0, %10
  %12 = getelementptr inbounds %"struct.cmFindBaseDebugState::DebugLibState", ptr %9, i64 %11
  store ptr %12, ptr %6, align 8
  call void @_ZN9__gnu_cxx17__normal_iteratorIPN20cmFindBaseDebugState13DebugLibStateESt6vectorIS2_SaIS2_EEEC2ERKS3_(ptr noundef nonnull align 8 dereferenceable(8) %3, ptr noundef nonnull align 8 dereferenceable(8) %6) #3
  %13 = getelementptr inbounds %"class.__gnu_cxx::__normal_iterator.466", ptr %3, i32 0, i32 0
  %14 = load ptr, ptr %13, align 8
  ret ptr %14
}

; Function Attrs: mustprogress nounwind uwtable
define linkonce_odr dso_local void @_ZN9__gnu_cxx17__normal_iteratorIPN20cmFindBaseDebugState13DebugLibStateESt6vectorIS2_SaIS2_EEEC2ERKS3_(ptr noundef nonnull align 8 dereferenceable(8) %0, ptr noundef nonnull align 8 dereferenceable(8) %1) unnamed_addr #5 comdat align 2 {
  %3 = alloca ptr, align 8
  %4 = alloca ptr, align 8
  store ptr %0, ptr %3, align 8
  store ptr %1, ptr %4, align 8
  %5 = load ptr, ptr %3, align 8
  %6 = getelementptr inbounds %"class.__gnu_cxx::__normal_iterator.466", ptr %5, i32 0, i32 0
  %7 = load ptr, ptr %4, align 8
  %8 = load ptr, ptr %7, align 8
  store ptr %8, ptr %6, align 8
  ret void
}

; Function Attrs: mustprogress uwtable
define linkonce_odr dso_local void @_ZNSt15__new_allocatorIN20cmFindBaseDebugState13DebugLibStateEE9constructIS1_JNSt7__cxx1112basic_stringIcSt11char_traitsIcESaIcEEERKS9_EEEvPT_DpOT0_(ptr noundef nonnull align 1 dereferenceable(1) %0, ptr noundef %1, ptr noundef nonnull align 8 dereferenceable(32) %2, ptr noundef nonnull align 8 dereferenceable(32) %3) #4 comdat align 2 personality ptr @__gxx_personality_v0 {
  %5 = alloca ptr, align 8
  %6 = alloca ptr, align 8
  %7 = alloca ptr, align 8
  %8 = alloca ptr, align 8
  %9 = alloca %"class.std::__cxx11::basic_string", align 8
  %10 = alloca ptr, align 8
  %11 = alloca i32, align 4
  store ptr %0, ptr %5, align 8
  store ptr %1, ptr %6, align 8
  store ptr %2, ptr %7, align 8
  store ptr %3, ptr %8, align 8
  %12 = load ptr, ptr %6, align 8
  %13 = load ptr, ptr %7, align 8
  %14 = load ptr, ptr %8, align 8
  call void @_ZNSt7__cxx1112basic_stringIcSt11char_traitsIcESaIcEEC1ERKS4_(ptr noundef nonnull align 8 dereferenceable(32) %9, ptr noundef nonnull align 8 dereferenceable(32) %14)
  invoke void @_ZN20cmFindBaseDebugState13DebugLibStateC2EONSt7__cxx1112basic_stringIcSt11char_traitsIcESaIcEEES6_(ptr noundef nonnull align 8 dereferenceable(64) %12, ptr noundef nonnull align 8 dereferenceable(32) %13, ptr noundef %9)
          to label %15 unwind label %16

15:                                               ; preds = %4
  call void @_ZNSt7__cxx1112basic_stringIcSt11char_traitsIcESaIcEED1Ev(ptr noundef nonnull align 8 dereferenceable(32) %9) #3
  ret void

16:                                               ; preds = %4
  %17 = landingpad { ptr, i32 }
          cleanup
  %18 = extractvalue { ptr, i32 } %17, 0
  store ptr %18, ptr %10, align 8
  %19 = extractvalue { ptr, i32 } %17, 1
  store i32 %19, ptr %11, align 4
  call void @_ZNSt7__cxx1112basic_stringIcSt11char_traitsIcESaIcEED1Ev(ptr noundef nonnull align 8 dereferenceable(32) %9) #3
  br label %20

20:                                               ; preds = %16
  %21 = load ptr, ptr %10, align 8
  %22 = load i32, ptr %11, align 4
  %23 = insertvalue { ptr, i32 } poison, ptr %21, 0
  %24 = insertvalue { ptr, i32 } %23, i32 %22, 1
  resume { ptr, i32 } %24
}

; Function Attrs: mustprogress nounwind uwtable
define linkonce_odr dso_local noundef nonnull align 8 dereferenceable(64) ptr @_ZNSt6vectorIN20cmFindBaseDebugState13DebugLibStateESaIS1_EE4backEv(ptr noundef nonnull align 8 dereferenceable(24) %0) #5 comdat align 2 {
  %2 = alloca ptr, align 8
  %3 = alloca %"class.__gnu_cxx::__normal_iterator.466", align 8
  %4 = alloca %"class.__gnu_cxx::__normal_iterator.466", align 8
  store ptr %0, ptr %2, align 8
  %5 = load ptr, ptr %2, align 8
  %6 = call ptr @_ZNSt6vectorIN20cmFindBaseDebugState13DebugLibStateESaIS1_EE3endEv(ptr noundef nonnull align 8 dereferenceable(24) %5) #3
  %7 = getelementptr inbounds %"class.__gnu_cxx::__normal_iterator.466", ptr %4, i32 0, i32 0
  store ptr %6, ptr %7, align 8
  %8 = call ptr @_ZNK9__gnu_cxx17__normal_iteratorIPN20cmFindBaseDebugState13DebugLibStateESt6vectorIS2_SaIS2_EEEmiEl(ptr noundef nonnull align 8 dereferenceable(8) %4, i64 noundef 1) #3
  %9 = getelementptr inbounds %"class.__gnu_cxx::__normal_iterator.466", ptr %3, i32 0, i32 0
  store ptr %8, ptr %9, align 8
  %10 = call noundef nonnull align 8 dereferenceable(64) ptr @_ZNK9__gnu_cxx17__normal_iteratorIPN20cmFindBaseDebugState13DebugLibStateESt6vectorIS2_SaIS2_EEEdeEv(ptr noundef nonnull align 8 dereferenceable(8) %3) #3
  ret ptr %10
}

; Function Attrs: mustprogress nounwind uwtable
define linkonce_odr dso_local ptr @_ZNSt6vectorIN20cmFindBaseDebugState13DebugLibStateESaIS1_EE3endEv(ptr noundef nonnull align 8 dereferenceable(24) %0) #5 comdat align 2 {
  %2 = alloca %"class.__gnu_cxx::__normal_iterator.466", align 8
  %3 = alloca ptr, align 8
  store ptr %0, ptr %3, align 8
  %4 = load ptr, ptr %3, align 8
  %5 = getelementptr inbounds %"struct.std::_Vector_base.462", ptr %4, i32 0, i32 0
  %6 = getelementptr inbounds %"struct.std::_Vector_base<cmFindBaseDebugState::DebugLibState, std::allocator<cmFindBaseDebugState::DebugLibState>>::_Vector_impl_data", ptr %5, i32 0, i32 1
  call void @_ZN9__gnu_cxx17__normal_iteratorIPN20cmFindBaseDebugState13DebugLibStateESt6vectorIS2_SaIS2_EEEC2ERKS3_(ptr noundef nonnull align 8 dereferenceable(8) %2, ptr noundef nonnull align 8 dereferenceable(8) %6) #3
  %7 = getelementptr inbounds %"class.__gnu_cxx::__normal_iterator.466", ptr %2, i32 0, i32 0
  %8 = load ptr, ptr %7, align 8
  ret ptr %8
}

; Function Attrs: mustprogress uwtable
define linkonce_odr dso_local void @_ZNSt16allocator_traitsISaIN20cmFindBaseDebugState13DebugLibStateEEE9constructIS1_JNSt7__cxx1112basic_stringIcSt11char_traitsIcESaIcEEERKSA_EEEvRS2_PT_DpOT0_(ptr noundef nonnull align 1 dereferenceable(1) %0, ptr noundef %1, ptr noundef nonnull align 8 dereferenceable(32) %2, ptr noundef nonnull align 8 dereferenceable(32) %3) #4 comdat align 2 {
  %5 = alloca ptr, align 8
  %6 = alloca ptr, align 8
  %7 = alloca ptr, align 8
  %8 = alloca ptr, align 8
  store ptr %0, ptr %5, align 8
  store ptr %1, ptr %6, align 8
  store ptr %2, ptr %7, align 8
  store ptr %3, ptr %8, align 8
  %9 = load ptr, ptr %5, align 8
  %10 = load ptr, ptr %6, align 8
  %11 = load ptr, ptr %7, align 8
  %12 = load ptr, ptr %8, align 8
  call void @_ZNSt15__new_allocatorIN20cmFindBaseDebugState13DebugLibStateEE9constructIS1_JNSt7__cxx1112basic_stringIcSt11char_traitsIcESaIcEEERKS9_EEEvPT_DpOT0_(ptr noundef nonnull align 1 dereferenceable(1) %9, ptr noundef %10, ptr noundef nonnull align 8 dereferenceable(32) %11, ptr noundef nonnull align 8 dereferenceable(32) %12)
  ret void
}

; Function Attrs: mustprogress uwtable
define linkonce_odr dso_local noundef nonnull align 8 dereferenceable(64) ptr @_ZNSt6vectorIN20cmFindBaseDebugState13DebugLibStateESaIS1_EE12emplace_backIJNSt7__cxx1112basic_stringIcSt11char_traitsIcESaIcEEERKSA_EEERS1_DpOT_(ptr noundef nonnull align 8 dereferenceable(24) %0, ptr noundef nonnull align 8 dereferenceable(32) %1, ptr noundef nonnull align 8 dereferenceable(32) %2) #4 comdat align 2 {
  %4 = alloca ptr, align 8
  %5 = alloca ptr, align 8
  %6 = alloca ptr, align 8
  %7 = alloca %"class.__gnu_cxx::__normal_iterator.466", align 8
  store ptr %0, ptr %4, align 8
  store ptr %1, ptr %5, align 8
  store ptr %2, ptr %6, align 8
  %8 = load ptr, ptr %4, align 8
  %9 = getelementptr inbounds %"struct.std::_Vector_base.462", ptr %8, i32 0, i32 0
  %10 = getelementptr inbounds %"struct.std::_Vector_base<cmFindBaseDebugState::DebugLibState, std::allocator<cmFindBaseDebugState::DebugLibState>>::_Vector_impl_data", ptr %9, i32 0, i32 1
  %11 = load ptr, ptr %10, align 8
  %12 = getelementptr inbounds %"struct.std::_Vector_base.462", ptr %8, i32 0, i32 0
  %13 = getelementptr inbounds %"struct.std::_Vector_base<cmFindBaseDebugState::DebugLibState, std::allocator<cmFindBaseDebugState::DebugLibState>>::_Vector_impl_data", ptr %12, i32 0, i32 2
  %14 = load ptr, ptr %13, align 8
  %15 = icmp ne ptr %11, %14
  br i1 %15, label %16, label %27

16:                                               ; preds = %3
  %17 = getelementptr inbounds %"struct.std::_Vector_base.462", ptr %8, i32 0, i32 0
  %18 = getelementptr inbounds %"struct.std::_Vector_base.462", ptr %8, i32 0, i32 0
  %19 = getelementptr inbounds %"struct.std::_Vector_base<cmFindBaseDebugState::DebugLibState, std::allocator<cmFindBaseDebugState::DebugLibState>>::_Vector_impl_data", ptr %18, i32 0, i32 1
  %20 = load ptr, ptr %19, align 8
  %21 = load ptr, ptr %5, align 8
  %22 = load ptr, ptr %6, align 8
  call void @_ZNSt16allocator_traitsISaIN20cmFindBaseDebugState13DebugLibStateEEE9constructIS1_JNSt7__cxx1112basic_stringIcSt11char_traitsIcESaIcEEERKSA_EEEvRS2_PT_DpOT0_(ptr noundef nonnull align 1 dereferenceable(1) %17, ptr noundef %20, ptr noundef nonnull align 8 dereferenceable(32) %21, ptr noundef nonnull align 8 dereferenceable(32) %22)
  %23 = getelementptr inbounds %"struct.std::_Vector_base.462", ptr %8, i32 0, i32 0
  %24 = getelementptr inbounds %"struct.std::_Vector_base<cmFindBaseDebugState::DebugLibState, std::allocator<cmFindBaseDebugState::DebugLibState>>::_Vector_impl_data", ptr %23, i32 0, i32 1
  %25 = load ptr, ptr %24, align 8
  %26 = getelementptr inbounds %"struct.cmFindBaseDebugState::DebugLibState", ptr %25, i32 1
  store ptr %26, ptr %24, align 8
  br label %34

27:                                               ; preds = %3
  %28 = call ptr @_ZNSt6vectorIN20cmFindBaseDebugState13DebugLibStateESaIS1_EE3endEv(ptr noundef nonnull align 8 dereferenceable(24) %8) #3
  %29 = getelementptr inbounds %"class.__gnu_cxx::__normal_iterator.466", ptr %7, i32 0, i32 0
  store ptr %28, ptr %29, align 8
  %30 = load ptr, ptr %5, align 8
  %31 = load ptr, ptr %6, align 8
  %32 = getelementptr inbounds %"class.__gnu_cxx::__normal_iterator.466", ptr %7, i32 0, i32 0
  %33 = load ptr, ptr %32, align 8
  call void @_ZNSt6vectorIN20cmFindBaseDebugState13DebugLibStateESaIS1_EE17_M_realloc_insertIJNSt7__cxx1112basic_stringIcSt11char_traitsIcESaIcEEERKSA_EEEvN9__gnu_cxx17__normal_iteratorIPS1_S3_EEDpOT_(ptr noundef nonnull align 8 dereferenceable(24) %8, ptr %33, ptr noundef nonnull align 8 dereferenceable(32) %30, ptr noundef nonnull align 8 dereferenceable(32) %31)
  br label %34

34:                                               ; preds = %27, %16
  %35 = call noundef nonnull align 8 dereferenceable(64) ptr @_ZNSt6vectorIN20cmFindBaseDebugState13DebugLibStateESaIS1_EE4backEv(ptr noundef nonnull align 8 dereferenceable(24) %8) #3
  ret ptr %35
}

; Function Attrs: mustprogress uwtable
define dso_local void @_ZN20cmFindBaseDebugState8FailedAtERKNSt7__cxx1112basic_stringIcSt11char_traitsIcESaIcEEES5_(ptr noundef nonnull align 8 dereferenceable(128) %0, ptr noundef nonnull align 8 dereferenceable(32) %1, ptr noundef %2) #4 align 2 {
  %4 = alloca ptr, align 8
  %5 = alloca ptr, align 8
  %6 = alloca ptr, align 8
  store ptr %0, ptr %4, align 8
  store ptr %1, ptr %5, align 8
  store ptr %2, ptr %6, align 8
  %7 = load ptr, ptr %4, align 8
  %8 = getelementptr inbounds %class.cmFindBaseDebugState, ptr %7, i32 0, i32 0
  %9 = load ptr, ptr %8, align 8
  %10 = getelementptr inbounds i8, ptr %9, i64 8
  %11 = getelementptr inbounds %class.cmFindCommon, ptr %10, i32 0, i32 4
  %12 = load i8, ptr %11, align 4
  %13 = trunc i8 %12 to i1
  br i1 %13, label %14, label %18

14:                                               ; preds = %3
  %15 = getelementptr inbounds %class.cmFindBaseDebugState, ptr %7, i32 0, i32 2
  %16 = load ptr, ptr %5, align 8
  %17 = call noundef nonnull align 8 dereferenceable(64) ptr @_ZNSt6vectorIN20cmFindBaseDebugState13DebugLibStateESaIS1_EE12emplace_backIJNSt7__cxx1112basic_stringIcSt11char_traitsIcESaIcEEERKSA_EEERS1_DpOT_(ptr noundef nonnull align 8 dereferenceable(24) %15, ptr noundef nonnull align 8 dereferenceable(32) %2, ptr noundef nonnull align 8 dereferenceable(32) %16)
  br label %18

18:                                               ; preds = %14, %3
  ret void
}