; Function Attrs: mustprogress uwtable
define dso_local void @_ZN20cmFindBaseDebugState8FailedAtERKNSt7__cxx1112basic_stringIcSt11char_traitsIcESaIcEEES5_(ptr noundef nonnull align 8 dereferenceable(128) %0, ptr noundef nonnull align 8 dereferenceable(32) %1, ptr noundef %2) local_unnamed_addr #3 align 2 personality ptr @__gxx_personality_v0 {
  %4 = alloca %"class.std::__cxx11::basic_string", align 8
  %5 = load ptr, ptr %0, align 8
  %6 = getelementptr inbounds i8, ptr %5, i64 92
  %7 = load i8, ptr %6, align 4
  %8 = and i8 %7, 1
  %.not = icmp eq i8 %8, 0
  br i1 %.not, label %_ZNSt6vectorIN20cmFindBaseDebugState13DebugLibStateESaIS1_EE12emplace_backIJNSt7__cxx1112basic_stringIcSt11char_traitsIcESaIcEEERKSA_EEERS1_DpOT_.exit, label %9

9:                                                ; preds = %3
  %10 = getelementptr inbounds i8, ptr %0, i64 48
  %11 = load ptr, ptr %10, align 8
  %12 = getelementptr inbounds i8, ptr %0, i64 56
  %13 = load ptr, ptr %12, align 8
  %.not.i = icmp eq ptr %11, %13
  br i1 %.not.i, label %20, label %14

14:                                               ; preds = %9
  call void @llvm.lifetime.start.p0(i64 32, ptr nonnull %4)
  call void @_ZNSt7__cxx1112basic_stringIcSt11char_traitsIcESaIcEEC1ERKS4_(ptr noundef nonnull align 8 dereferenceable(32) %4, ptr noundef nonnull align 8 dereferenceable(32) %1)
  invoke void @_ZNSt7__cxx1112basic_stringIcSt11char_traitsIcESaIcEEC1ERKS4_(ptr noundef nonnull align 8 dereferenceable(32) %11, ptr noundef nonnull align 8 dereferenceable(32) %2)
          to label %_ZNSt16allocator_traitsISaIN20cmFindBaseDebugState13DebugLibStateEEE9constructIS1_JNSt7__cxx1112basic_stringIcSt11char_traitsIcESaIcEEERKSA_EEEvRS2_PT_DpOT0_.exit.i unwind label %15

15:                                               ; preds = %14
  %16 = landingpad { ptr, i32 }
          cleanup
  call void @_ZNSt7__cxx1112basic_stringIcSt11char_traitsIcESaIcEED1Ev(ptr noundef nonnull align 8 dereferenceable(32) %4) #18
  resume { ptr, i32 } %16

_ZNSt16allocator_traitsISaIN20cmFindBaseDebugState13DebugLibStateEEE9constructIS1_JNSt7__cxx1112basic_stringIcSt11char_traitsIcESaIcEEERKSA_EEEvRS2_PT_DpOT0_.exit.i: ; preds = %14
  %17 = getelementptr inbounds i8, ptr %11, i64 32
  call void @_ZNSt7__cxx1112basic_stringIcSt11char_traitsIcESaIcEEC1EOS4_(ptr noundef nonnull align 8 dereferenceable(32) %17, ptr noundef nonnull align 8 dereferenceable(32) %4) #18
  call void @_ZNSt7__cxx1112basic_stringIcSt11char_traitsIcESaIcEED1Ev(ptr noundef nonnull align 8 dereferenceable(32) %4) #18
  call void @llvm.lifetime.end.p0(i64 32, ptr nonnull %4)
  %18 = load ptr, ptr %10, align 8
  %19 = getelementptr inbounds i8, ptr %18, i64 64
  store ptr %19, ptr %10, align 8
  br label %_ZNSt6vectorIN20cmFindBaseDebugState13DebugLibStateESaIS1_EE12emplace_backIJNSt7__cxx1112basic_stringIcSt11char_traitsIcESaIcEEERKSA_EEERS1_DpOT_.exit

20:                                               ; preds = %9
  %21 = getelementptr inbounds i8, ptr %0, i64 40
  tail call void @_ZNSt6vectorIN20cmFindBaseDebugState13DebugLibStateESaIS1_EE17_M_realloc_insertIJNSt7__cxx1112basic_stringIcSt11char_traitsIcESaIcEEERKSA_EEEvN9__gnu_cxx17__normal_iteratorIPS1_S3_EEDpOT_(ptr noundef nonnull align 8 dereferenceable(24) %21, ptr %11, ptr noundef nonnull align 8 dereferenceable(32) %2, ptr noundef nonnull align 8 dereferenceable(32) %1)
  br label %_ZNSt6vectorIN20cmFindBaseDebugState13DebugLibStateESaIS1_EE12emplace_backIJNSt7__cxx1112basic_stringIcSt11char_traitsIcESaIcEEERKSA_EEERS1_DpOT_.exit

_ZNSt6vectorIN20cmFindBaseDebugState13DebugLibStateESaIS1_EE12emplace_backIJNSt7__cxx1112basic_stringIcSt11char_traitsIcESaIcEEERKSA_EEERS1_DpOT_.exit: ; preds = %20, %_ZNSt16allocator_traitsISaIN20cmFindBaseDebugState13DebugLibStateEEE9constructIS1_JNSt7__cxx1112basic_stringIcSt11char_traitsIcESaIcEEERKSA_EEEvRS2_PT_DpOT0_.exit.i, %3
  ret void
}